; Function Attrs: nounwind uwtable
define ptr @H5VL_object_verify(i64 noundef %0, i32 noundef %1) local_unnamed_addr #0 {
  %3 = tail call i32 @H5I_get_type(i64 noundef %0) #10
  %.not = icmp eq i32 %3, %1
  br i1 %.not, label %8, label %4

4:                                                ; preds = %2
  %5 = load i64, ptr @H5E_ARGS_g, align 8
  %6 = load i64, ptr @H5E_BADTYPE_g, align 8
  %7 = tail call i32 (ptr, ptr, i32, i64, i64, ptr, ...) @H5E_printf_stack(ptr noundef nonnull @.str.2, ptr noundef nonnull @__func__.H5VL_object_verify, i32 noundef 1915, i64 noundef %5, i64 noundef %6, ptr noundef nonnull @.str.73) #10
  br label %15

8:                                                ; preds = %2
  %9 = tail call fastcc ptr @H5VL__object(i64 noundef %0, i32 noundef %1)
  %10 = icmp eq ptr %9, null
  br i1 %10, label %11, label %15

11:                                               ; preds = %8
  %12 = load i64, ptr @H5E_ARGS_g, align 8
  %13 = load i64, ptr @H5E_CANTGET_g, align 8
  %14 = tail call i32 (ptr, ptr, i32, i64, i64, ptr, ...) @H5E_printf_stack(ptr noundef nonnull @.str.2, ptr noundef nonnull @__func__.H5VL_object_verify, i32 noundef 1919, i64 noundef %12, i64 noundef %13, ptr noundef nonnull @.str.77) #10
  br label %15

15:                                               ; preds = %8, %11, %4
  %.0 = phi ptr [ null, %4 ], [ null, %11 ], [ %9, %8 ]
  ret ptr %.0
}